; Function Attrs: nounwind sspstrong uwtable
define internal void @rv64_base_cpu_init(ptr noundef %obj) #3 {
entry:
  %call.i = tail call ptr @object_dynamic_cast_assert(ptr noundef %obj, ptr noundef nonnull @.str.250, ptr noundef nonnull @.str.282, i32 noundef 46, ptr noundef nonnull @__func__.RISCV_CPU) #14
  %misa_mxl.i = getelementptr inbounds nuw i8, ptr %call.i, i64 15184
  store i32 2, ptr %misa_mxl.i, align 16
  %misa_mxl_max.i = getelementptr inbounds nuw i8, ptr %call.i, i64 15188
  store i32 2, ptr %misa_mxl_max.i, align 4
  %misa_ext.i = getelementptr inbounds nuw i8, ptr %call.i, i64 15192
  store i32 0, ptr %misa_ext.i, align 8
  %misa_ext_mask.i = getelementptr inbounds nuw i8, ptr %call.i, i64 15196
  store i32 0, ptr %misa_ext_mask.i, align 4
  %priv_ver = getelementptr inbounds nuw i8, ptr %call.i, i64 15160
  store i64 2, ptr %priv_ver, align 8
  ret void
}